target datalayout = "e-m:e-p270:32:32-p271:32:32-p272:64:64-i64:64-i128:128-f80:128-n8:16:32:64-S128"
target triple = "x86_64-pc-linux-gnu"

%struct._zend_op_array = type { i8, [3 x i8], i32, ptr, ptr, ptr, i32, i32, ptr, ptr, ptr, ptr, i32, i32, i32, i32, ptr, ptr, ptr, ptr, ptr, i32, i32, ptr, ptr, ptr, i32, i32, i32, i32, ptr, ptr, [6 x ptr] }
%struct._zend_call_info = type { ptr, ptr, ptr, ptr, ptr, ptr, i8, i8, i8, i8, i8, i32, [1 x %struct._zend_send_arg_info] }
%struct._zend_send_arg_info = type { ptr }
%struct._zend_func_info = type { i32, i32, %struct._zend_ssa, ptr, ptr, ptr, %struct._zend_ssa_var_info }
%struct._zend_ssa = type { %struct._zend_cfg, i32, i32, ptr, ptr, ptr, ptr }
%struct._zend_cfg = type { i32, i32, ptr, ptr, ptr, i32 }
%struct._zend_ssa_var_info = type { i32, i8, %struct._zend_ssa_range, ptr }
%struct._zend_ssa_range = type { i64, i64, i8, i8 }

@zend_func_info_rid = external global i32, align 4

; Function Attrs: nounwind uwtable
define internal void @zend_bitset_incl(ptr noundef %0, i32 noundef %1) #0 {
  %3 = alloca ptr, align 8
  %4 = alloca i32, align 4
  store ptr %0, ptr %3, align 8
  store i32 %1, ptr %4, align 4
  %5 = load i32, ptr %4, align 4
  %6 = zext i32 %5 to i64
  %7 = and i64 %6, 63
  %8 = shl i64 1, %7
  %9 = load ptr, ptr %3, align 8
  %10 = load i32, ptr %4, align 4
  %11 = lshr i32 %10, 6
  %12 = zext i32 %11 to i64
  %13 = getelementptr inbounds i64, ptr %9, i64 %12
  %14 = load i64, ptr %13, align 8
  %15 = or i64 %14, %8
  store i64 %15, ptr %13, align 8
  ret void
}

; Function Attrs: nounwind uwtable
define internal zeroext i1 @zend_bitset_in(ptr noundef %0, i32 noundef %1) #0 {
  %3 = alloca ptr, align 8
  %4 = alloca i32, align 4
  store ptr %0, ptr %3, align 8
  store i32 %1, ptr %4, align 4
  %5 = load ptr, ptr %3, align 8
  %6 = load i32, ptr %4, align 4
  %7 = zext i32 %6 to i64
  %8 = udiv i64 %7, 64
  %9 = getelementptr inbounds i64, ptr %5, i64 %8
  %10 = load i64, ptr %9, align 8
  %11 = load i32, ptr %4, align 4
  %12 = zext i32 %11 to i64
  %13 = and i64 %12, 63
  %14 = lshr i64 %10, %13
  %15 = and i64 %14, 1
  %16 = icmp ne i64 %15, 0
  ret i1 %16
}

; Function Attrs: nounwind uwtable
define internal zeroext i1 @zend_is_indirectly_recursive(ptr noundef %0, ptr noundef %1, ptr noundef %2) #0 {
  %4 = alloca i1, align 1
  %5 = alloca ptr, align 8
  %6 = alloca ptr, align 8
  %7 = alloca ptr, align 8
  %8 = alloca ptr, align 8
  %9 = alloca ptr, align 8
  %10 = alloca i8, align 1
  store ptr %0, ptr %5, align 8
  store ptr %1, ptr %6, align 8
  store ptr %2, ptr %7, align 8
  store i8 0, ptr %10, align 1
  %11 = load ptr, ptr %6, align 8
  %12 = load ptr, ptr %5, align 8
  %13 = icmp eq ptr %11, %12
  br i1 %13, label %14, label %15

14:                                               ; preds = %3
  store i1 true, ptr %4, align 1
  br label %56

15:                                               ; preds = %3
  %16 = load ptr, ptr %6, align 8
  %17 = getelementptr inbounds %struct._zend_op_array, ptr %16, i32 0, i32 32
  %18 = load i32, ptr @zend_func_info_rid, align 4
  %19 = sext i32 %18 to i64
  %20 = getelementptr inbounds [6 x ptr], ptr %17, i64 0, i64 %19
  %21 = load ptr, ptr %20, align 8
  store ptr %21, ptr %8, align 8
  %22 = load ptr, ptr %7, align 8
  %23 = load ptr, ptr %8, align 8
  %24 = getelementptr inbounds %struct._zend_func_info, ptr %23, i32 0, i32 0
  %25 = load i32, ptr %24, align 8
  %26 = call zeroext i1 @zend_bitset_in(ptr noundef %22, i32 noundef %25)
  br i1 %26, label %27, label %28

27:                                               ; preds = %15
  store i1 false, ptr %4, align 1
  br label %56

28:                                               ; preds = %15
  %29 = load ptr, ptr %7, align 8
  %30 = load ptr, ptr %8, align 8
  %31 = getelementptr inbounds %struct._zend_func_info, ptr %30, i32 0, i32 0
  %32 = load i32, ptr %31, align 8
  call void @zend_bitset_incl(ptr noundef %29, i32 noundef %32)
  %33 = load ptr, ptr %8, align 8
  %34 = getelementptr inbounds %struct._zend_func_info, ptr %33, i32 0, i32 3
  %35 = load ptr, ptr %34, align 8
  store ptr %35, ptr %9, align 8
  br label %36

36:                                               ; preds = %49, %28
  %37 = load ptr, ptr %9, align 8
  %38 = icmp ne ptr %37, null
  br i1 %38, label %39, label %53

39:                                               ; preds = %36
  %40 = load ptr, ptr %5, align 8
  %41 = load ptr, ptr %9, align 8
  %42 = getelementptr inbounds %struct._zend_call_info, ptr %41, i32 0, i32 0
  %43 = load ptr, ptr %42, align 8
  %44 = load ptr, ptr %7, align 8
  %45 = call zeroext i1 @zend_is_indirectly_recursive(ptr noundef %40, ptr noundef %43, ptr noundef %44)
  br i1 %45, label %46, label %49

46:                                               ; preds = %39
  %47 = load ptr, ptr %9, align 8
  %48 = getelementptr inbounds %struct._zend_call_info, ptr %47, i32 0, i32 6
  store i8 1, ptr %48, align 8
  store i8 1, ptr %10, align 1
  br label %49

49:                                               ; preds = %46, %39
  %50 = load ptr, ptr %9, align 8
  %51 = getelementptr inbounds %struct._zend_call_info, ptr %50, i32 0, i32 4
  %52 = load ptr, ptr %51, align 8
  store ptr %52, ptr %9, align 8
  br label %36

53:                                               ; preds = %36
  %54 = load i8, ptr %10, align 1
  %55 = trunc i8 %54 to i1
  store i1 %55, ptr %4, align 1
  br label %56

56:                                               ; preds = %53, %27, %14
  %57 = load i1, ptr %4, align 1
  ret i1 %57
}