; Function Attrs: nofree nosync nounwind memory(readwrite, inaccessiblemem: none) uwtable
define internal fastcc zeroext i1 @zend_is_indirectly_recursive(ptr noundef %0, ptr noundef readonly %1, ptr nocapture noundef %2) unnamed_addr #7 {
  %4 = icmp eq ptr %1, %0
  br i1 %4, label %._crit_edge, label %5

5:                                                ; preds = %3
  %6 = getelementptr inbounds i8, ptr %1, i64 192
  %7 = load i32, ptr @zend_func_info_rid, align 4
  %8 = sext i32 %7 to i64
  %9 = getelementptr inbounds [6 x ptr], ptr %6, i64 0, i64 %8
  %10 = load ptr, ptr %9, align 8
  %11 = load i32, ptr %10, align 8
  %12 = zext i32 %11 to i64
  %13 = lshr i64 %12, 6
  %14 = getelementptr inbounds i64, ptr %2, i64 %13
  %15 = load i64, ptr %14, align 8
  %16 = and i64 %12, 63
  %17 = shl nuw i64 1, %16
  %18 = and i64 %17, %15
  %.not19 = icmp eq i64 %18, 0
  br i1 %.not19, label %19, label %._crit_edge

19:                                               ; preds = %5
  %20 = and i32 %11, 63
  %21 = zext nneg i32 %20 to i64
  %22 = shl nuw i64 1, %21
  %23 = lshr i32 %11, 6
  %24 = zext nneg i32 %23 to i64
  %25 = getelementptr inbounds i64, ptr %2, i64 %24
  %26 = load i64, ptr %25, align 8
  %27 = or i64 %26, %22
  store i64 %27, ptr %25, align 8
  %28 = getelementptr inbounds i8, ptr %10, i64 88
  %.01520 = load ptr, ptr %28, align 8
  %.not21 = icmp eq ptr %.01520, null
  br i1 %.not21, label %._crit_edge, label %.lr.ph

.lr.ph:                                           ; preds = %19, %33
  %.01523 = phi ptr [ %.015, %33 ], [ %.01520, %19 ]
  %.022 = phi i8 [ %.1, %33 ], [ 0, %19 ]
  %29 = load ptr, ptr %.01523, align 8
  %30 = tail call fastcc zeroext i1 @zend_is_indirectly_recursive(ptr noundef %0, ptr noundef %29, ptr noundef %2)
  br i1 %30, label %31, label %33

31:                                               ; preds = %.lr.ph
  %32 = getelementptr inbounds i8, ptr %.01523, i64 48
  store i8 1, ptr %32, align 8
  br label %33

33:                                               ; preds = %31, %.lr.ph
  %.1 = phi i8 [ 1, %31 ], [ %.022, %.lr.ph ]
  %34 = getelementptr inbounds i8, ptr %.01523, i64 32
  %.015 = load ptr, ptr %34, align 8
  %.not = icmp eq ptr %.015, null
  br i1 %.not, label %._crit_edge.loopexit, label %.lr.ph

._crit_edge.loopexit:                             ; preds = %33
  %35 = and i8 %.1, 1
  %36 = icmp ne i8 %35, 0
  br label %._crit_edge

._crit_edge:                                      ; preds = %19, %._crit_edge.loopexit, %5, %3
  %.016 = phi i1 [ true, %3 ], [ false, %5 ], [ false, %19 ], [ %36, %._crit_edge.loopexit ]
  ret i1 %.016
}